; Function Attrs: cold inlinehint mustprogress uwtable
define internal fastcc void @"_ZZN12_GLOBAL__N_178ScopedMockLogTsanTest_ScopedMockLogCanBeDeletedWhenAnotherThreadIsLogging_Test8TestBodyEvENK3$_0clEv"(ptr noundef nonnull readonly align 8 captures(none) dereferenceable(8) %0) unnamed_addr #23 align 2 personality ptr @__gxx_personality_v0 {
  %2 = alloca %"class.absl::log_internal::LogMessage", align 8
  br label %4

3:                                                ; preds = %_ZN4absl12log_internal10LogMessagelsILi11EEERS1_RAT__Kc.exit
  ret void

4:                                                ; preds = %1, %_ZN4absl12log_internal10LogMessagelsILi11EEERS1_RAT__Kc.exit
  %.05 = phi i32 [ 0, %1 ], [ %9, %_ZN4absl12log_internal10LogMessagelsILi11EEERS1_RAT__Kc.exit ]
  %5 = icmp eq i32 %.05, 50
  br i1 %5, label %6, label %8

6:                                                ; preds = %4
  %7 = load ptr, ptr %0, align 8, !tbaa !431
  call void @_ZN4absl12Notification6NotifyEv(ptr noundef nonnull align 8 dereferenceable(9) %7)
  br label %8

8:                                                ; preds = %6, %4
  call void @llvm.lifetime.start.p0(i64 16, ptr nonnull %2) #30
  call void @_ZN4absl12log_internal10LogMessageC1EPKciNS1_7InfoTagE(ptr noundef nonnull align 8 dereferenceable(16) %2, ptr noundef nonnull @.str.4, i32 noundef 275) #36
  invoke void @_ZN4absl12log_internal10LogMessage19CopyToEncodedBufferILNS1_10StringTypeE0EEEvSt17basic_string_viewIcSt11char_traitsIcEE(ptr noundef nonnull align 8 dereferenceable(16) %2, i64 10, ptr nonnull @.str.110)
          to label %_ZN4absl12log_internal10LogMessagelsILi11EEERS1_RAT__Kc.exit unwind label %10

_ZN4absl12log_internal10LogMessagelsILi11EEERS1_RAT__Kc.exit: ; preds = %8
  call void @_ZN4absl12log_internal10LogMessageD1Ev(ptr noundef nonnull align 8 dereferenceable(16) %2) #34
  call void @llvm.lifetime.end.p0(i64 16, ptr nonnull %2) #30
  %9 = add nuw nsw i32 %.05, 1
  %exitcond.not = icmp eq i32 %9, 100
  br i1 %exitcond.not, label %3, label %4, !llvm.loop !433

10:                                               ; preds = %8
  %11 = landingpad { ptr, i32 }
          cleanup
  call void @_ZN4absl12log_internal10LogMessageD1Ev(ptr noundef nonnull align 8 dereferenceable(16) %2) #34
  call void @llvm.lifetime.end.p0(i64 16, ptr nonnull %2) #30
  resume { ptr, i32 } %11
}